; Function Attrs: nounwind uwtable
define void @Abc_NodePrintFactor(ptr noundef captures(none) %0, ptr noundef %1, i32 noundef %2) local_unnamed_addr #0 {
  %4 = getelementptr i8, ptr %1, i64 20
  %.val19 = load i32, ptr %4, align 4
  %5 = and i32 %.val19, 15
  %6 = add nsw i32 %5, -5
  %narrow.i = icmp ult i32 %6, -2
  br i1 %narrow.i, label %14, label %7

7:                                                ; preds = %3
  %.val = load ptr, ptr %1, align 8
  %8 = getelementptr i8, ptr %1, i64 32
  %.val18 = load ptr, ptr %8, align 8
  %9 = getelementptr i8, ptr %.val, i64 32
  %.val.val = load ptr, ptr %9, align 8
  %.val18.val = load i32, ptr %.val18, align 4
  %10 = getelementptr i8, ptr %.val.val, i64 8
  %.val.val.val = load ptr, ptr %10, align 8
  %11 = sext i32 %.val18.val to i64
  %12 = getelementptr inbounds ptr, ptr %.val.val.val, i64 %11
  %13 = load ptr, ptr %12, align 8
  %.phi.trans.insert = getelementptr i8, ptr %13, i64 20
  %.0.val20.pre = load i32, ptr %.phi.trans.insert, align 4
  br label %14

14:                                               ; preds = %7, %3
  %.0.val20 = phi i32 [ %.0.val20.pre, %7 ], [ %.val19, %3 ]
  %.0 = phi ptr [ %13, %7 ], [ %1, %3 ]
  %15 = and i32 %.0.val20, 15
  switch i32 %15, label %20 [
    i32 2, label %16
    i32 8, label %18
  ]

16:                                               ; preds = %14
  %17 = tail call i64 @fwrite(ptr nonnull @.str.80, i64 22, i64 1, ptr %0)
  br label %37

18:                                               ; preds = %14
  %19 = tail call i64 @fwrite(ptr nonnull @.str.81, i64 20, i64 1, ptr %0)
  br label %37

20:                                               ; preds = %14
  %21 = getelementptr inbounds nuw i8, ptr %.0, i64 56
  %22 = load ptr, ptr %21, align 8
  %23 = tail call ptr @Dec_Factor(ptr noundef %22) #19
  %.not17 = icmp eq i32 %2, 0
  br i1 %.not17, label %30, label %24

24:                                               ; preds = %20
  %25 = tail call ptr @Abc_NodeGetFaninNames(ptr noundef nonnull %.0) #19
  %26 = load ptr, ptr @stdout, align 8
  %27 = getelementptr inbounds nuw i8, ptr %25, i64 8
  %28 = load ptr, ptr %27, align 8
  %29 = tail call ptr @Abc_ObjName(ptr noundef nonnull %.0) #19
  tail call void @Dec_GraphPrint(ptr noundef %26, ptr noundef %23, ptr noundef %28, ptr noundef %29) #19
  tail call void @Abc_NodeFreeNames(ptr noundef %25) #19
  br label %33

30:                                               ; preds = %20
  %31 = load ptr, ptr @stdout, align 8
  %32 = tail call ptr @Abc_ObjName(ptr noundef nonnull %.0) #19
  tail call void @Dec_GraphPrint(ptr noundef %31, ptr noundef %23, ptr noundef null, ptr noundef %32) #19
  br label %33

33:                                               ; preds = %30, %24
  %34 = getelementptr inbounds nuw i8, ptr %23, i64 16
  %35 = load ptr, ptr %34, align 8
  %.not.i = icmp eq ptr %35, null
  br i1 %.not.i, label %Dec_GraphFree.exit, label %36

36:                                               ; preds = %33
  tail call void @free(ptr noundef nonnull %35) #19
  br label %Dec_GraphFree.exit

Dec_GraphFree.exit:                               ; preds = %33, %36
  tail call void @free(ptr noundef nonnull %23) #19
  br label %37

37:                                               ; preds = %Dec_GraphFree.exit, %18, %16
  ret void
}